; ModuleID = 'source-C-CXX/18/958.c'
source_filename = "source-C-CXX/18/958.c"
target datalayout = "e-m:e-p270:32:32-p271:32:32-p272:64:64-i64:64-f80:128-n8:16:32:64-S128"
target triple = "x86_64-pc-linux-gnu"

@.str = private unnamed_addr constant [5 x i8] c"%s%s\00", align 1
@.str.1 = private unnamed_addr constant [3 x i8] c"%s\00", align 1

; Function Attrs: nounwind sspstrong uwtable
define dso_local i32 @main() local_unnamed_addr #0 {
  %1 = alloca [100 x i8], align 16
  %2 = alloca [100 x i8], align 16
  %3 = alloca [100 x i8], align 16
  %4 = getelementptr inbounds [100 x i8], [100 x i8]* %1, i64 0, i64 0
  call void @llvm.lifetime.start.p0i8(i64 100, i8* nonnull %4) #6
  %5 = getelementptr inbounds [100 x i8], [100 x i8]* %2, i64 0, i64 0
  call void @llvm.lifetime.start.p0i8(i64 100, i8* nonnull %5) #6
  %6 = getelementptr inbounds [100 x i8], [100 x i8]* %3, i64 0, i64 0
  call void @llvm.lifetime.start.p0i8(i64 100, i8* nonnull %6) #6
  %7 = call i32 (i8*, ...) bitcast (i32 (...)* @gets to i32 (i8*, ...)*)(i8* nonnull %4) #6
  %8 = call i32 (i8*, ...) @__isoc99_scanf(i8* getelementptr inbounds ([5 x i8], [5 x i8]* @.str, i64 0, i64 0), i8* nonnull %5, i8* nonnull %6)
  br label %9

9:                                                ; preds = %47, %0
  %10 = phi i32 [ 0, %0 ], [ %53, %47 ]
  %11 = sext i32 %10 to i64
  br label %12

12:                                               ; preds = %12, %9
  %13 = phi i64 [ %22, %12 ], [ 0, %9 ]
  %14 = add nsw i64 %13, %11
  %15 = getelementptr inbounds [100 x i8], [100 x i8]* %1, i64 0, i64 %14
  %16 = load i8, i8* %15, align 1, !tbaa !5
  %17 = getelementptr inbounds [100 x i8], [100 x i8]* %2, i64 0, i64 %13
  %18 = load i8, i8* %17, align 1, !tbaa !5
  %19 = icmp ne i8 %16, %18
  %20 = icmp eq i8 %16, 0
  %21 = or i1 %20, %19
  %22 = add nuw i64 %13, 1
  br i1 %21, label %23, label %12

23:                                               ; preds = %12
  %24 = icmp eq i8 %18, 0
  br i1 %24, label %25, label %40

25:                                               ; preds = %23
  switch i8 %16, label %40 [
    i8 32, label %26
    i8 0, label %26
  ]

26:                                               ; preds = %25, %25
  %27 = add i32 %10, -1
  %28 = sext i32 %27 to i64
  %29 = getelementptr inbounds [100 x i8], [100 x i8]* %1, i64 0, i64 %28
  %30 = load i8, i8* %29, align 1, !tbaa !5
  %31 = icmp eq i8 %30, 32
  %32 = icmp eq i32 %10, 0
  %33 = select i1 %31, i1 true, i1 %32
  br i1 %33, label %34, label %40

34:                                               ; preds = %26
  %35 = call i32 (i8*, ...) @printf(i8* nonnull dereferenceable(1) getelementptr inbounds ([3 x i8], [3 x i8]* @.str.1, i64 0, i64 0), i8* nonnull %6)
  %36 = call i64 @strlen(i8* noundef nonnull %5) #7
  %37 = trunc i64 %36 to i32
  %38 = add i32 %27, %37
  %39 = sext i32 %38 to i64
  br label %47

40:                                               ; preds = %25, %26, %23
  %41 = getelementptr inbounds [100 x i8], [100 x i8]* %1, i64 0, i64 %11
  %42 = load i8, i8* %41, align 1, !tbaa !5
  %43 = icmp eq i8 %42, 0
  br i1 %43, label %47, label %44

44:                                               ; preds = %40
  %45 = sext i8 %42 to i32
  %46 = call i32 @putchar(i32 %45)
  br label %47

47:                                               ; preds = %40, %44, %34
  %48 = phi i64 [ %11, %40 ], [ %11, %44 ], [ %39, %34 ]
  %49 = phi i32 [ %10, %40 ], [ %10, %44 ], [ %38, %34 ]
  %50 = getelementptr inbounds [100 x i8], [100 x i8]* %1, i64 0, i64 %48
  %51 = load i8, i8* %50, align 1, !tbaa !5
  %52 = icmp eq i8 %51, 0
  %53 = add nsw i32 %49, 1
  br i1 %52, label %54, label %9

54:                                               ; preds = %47
  %55 = load i8, i8* %5, align 16, !tbaa !5
  %56 = icmp eq i8 %55, 0
  br i1 %56, label %57, label %59

57:                                               ; preds = %54
  %58 = call i32 (i8*, ...) @printf(i8* nonnull dereferenceable(1) getelementptr inbounds ([3 x i8], [3 x i8]* @.str.1, i64 0, i64 0), i8* nonnull %6)
  br label %59

59:                                               ; preds = %57, %54
  call void @llvm.lifetime.end.p0i8(i64 100, i8* nonnull %6) #6
  call void @llvm.lifetime.end.p0i8(i64 100, i8* nonnull %5) #6
  call void @llvm.lifetime.end.p0i8(i64 100, i8* nonnull %4) #6
  ret i32 0
}

; Function Attrs: argmemonly mustprogress nofree nosync nounwind willreturn
declare void @llvm.lifetime.start.p0i8(i64 immarg, i8* nocapture) #1

declare i32 @gets(...) local_unnamed_addr #2

; Function Attrs: nofree nounwind
declare noundef i32 @__isoc99_scanf(i8* nocapture noundef readonly, ...) local_unnamed_addr #3

; Function Attrs: nofree nounwind
declare noundef i32 @printf(i8* nocapture noundef readonly, ...) local_unnamed_addr #3

; Function Attrs: argmemonly mustprogress nofree nounwind readonly willreturn
declare i64 @strlen(i8* nocapture) local_unnamed_addr #4

; Function Attrs: argmemonly mustprogress nofree nosync nounwind willreturn
declare void @llvm.lifetime.end.p0i8(i64 immarg, i8* nocapture) #1

; Function Attrs: nofree nounwind
declare noundef i32 @putchar(i32 noundef) local_unnamed_addr #5


!llvm.module.flags = !{!0, !1, !2, !3}
!llvm.ident = !{!4}

!0 = !{i32 1, !"wchar_size", i32 4}
!1 = !{i32 7, !"PIC Level", i32 2}
!2 = !{i32 7, !"PIE Level", i32 2}
!3 = !{i32 7, !"uwtable", i32 1}
!4 = !{!"clang version 13.0.0"}
!5 = !{!6, !6, i64 0}
!6 = !{!"omnipotent char", !7, i64 0}
!7 = !{!"Simple C/C++ TBAA"}
